target datalayout = "e-m:e-p270:32:32-p271:32:32-p272:64:64-i64:64-i128:128-f80:128-n8:16:32:64-S128"
target triple = "x86_64-pc-linux-gnu"

%struct.FT_Bitmap_ = type { i32, i32, i32, ptr, i16, i8, i8, ptr }
%struct.FT_Vector_ = type { i64, i64 }
%struct.FT_GlyphSlotRec_ = type { ptr, ptr, ptr, i32, %struct.FT_Generic_, %struct.FT_Glyph_Metrics_, i64, i64, %struct.FT_Vector_, i32, %struct.FT_Bitmap_, i32, i32, %struct.FT_Outline_, i32, ptr, ptr, i64, i64, i64, ptr, ptr }
%struct.FT_Generic_ = type { ptr, ptr }
%struct.FT_Glyph_Metrics_ = type { i64, i64, i64, i64, i64, i64, i64, i64 }
%struct.FT_Outline_ = type { i16, i16, ptr, ptr, ptr, i32 }
%struct.FT_Slot_InternalRec_ = type { ptr, i32, i8, %struct.FT_Matrix_, %struct.FT_Vector_, ptr, i32 }
%struct.FT_Matrix_ = type { i64, i64, i64, i64 }

@null_bitmap = internal constant %struct.FT_Bitmap_ zeroinitializer, align 8

; Function Attrs: nounwind uwtable
define void @FT_Bitmap_Init(ptr noundef %0) #0 {
  %2 = alloca ptr, align 8
  store ptr %0, ptr %2, align 8
  %3 = load ptr, ptr %2, align 8
  %4 = icmp ne ptr %3, null
  br i1 %4, label %5, label %7

5:                                                ; preds = %1
  %6 = load ptr, ptr %2, align 8
  call void @llvm.memcpy.p0.p0.i64(ptr align 8 %6, ptr align 8 @null_bitmap, i64 40, i1 false)
  br label %7

7:                                                ; preds = %5, %1
  ret void
}

; Function Attrs: nounwind uwtable
define i32 @FT_GlyphSlot_Own_Bitmap(ptr noundef %0) #0 {
  %2 = alloca i32, align 4
  %3 = alloca ptr, align 8
  %4 = alloca %struct.FT_Bitmap_, align 8
  %5 = alloca i32, align 4
  store ptr %0, ptr %3, align 8
  %6 = load ptr, ptr %3, align 8
  %7 = icmp ne ptr %6, null
  br i1 %7, label %8, label %41

8:                                                ; preds = %1
  %9 = load ptr, ptr %3, align 8
  %10 = getelementptr inbounds %struct.FT_GlyphSlotRec_, ptr %9, i32 0, i32 9
  %11 = load i32, ptr %10, align 8
  %12 = icmp eq i32 %11, 1651078259
  br i1 %12, label %13, label %41

13:                                               ; preds = %8
  %14 = load ptr, ptr %3, align 8
  %15 = getelementptr inbounds %struct.FT_GlyphSlotRec_, ptr %14, i32 0, i32 21
  %16 = load ptr, ptr %15, align 8
  %17 = getelementptr inbounds %struct.FT_Slot_InternalRec_, ptr %16, i32 0, i32 1
  %18 = load i32, ptr %17, align 8
  %19 = and i32 %18, 1
  %20 = icmp ne i32 %19, 0
  br i1 %20, label %41, label %21

21:                                               ; preds = %13
  call void @FT_Bitmap_Init(ptr noundef %4)
  %22 = load ptr, ptr %3, align 8
  %23 = getelementptr inbounds %struct.FT_GlyphSlotRec_, ptr %22, i32 0, i32 0
  %24 = load ptr, ptr %23, align 8
  %25 = load ptr, ptr %3, align 8
  %26 = getelementptr inbounds %struct.FT_GlyphSlotRec_, ptr %25, i32 0, i32 10
  %27 = call i32 @FT_Bitmap_Copy(ptr noundef %24, ptr noundef %26, ptr noundef %4)
  store i32 %27, ptr %5, align 4
  %28 = load i32, ptr %5, align 4
  %29 = icmp ne i32 %28, 0
  br i1 %29, label %30, label %32

30:                                               ; preds = %21
  %31 = load i32, ptr %5, align 4
  store i32 %31, ptr %2, align 4
  br label %42

32:                                               ; preds = %21
  %33 = load ptr, ptr %3, align 8
  %34 = getelementptr inbounds %struct.FT_GlyphSlotRec_, ptr %33, i32 0, i32 10
  call void @llvm.memcpy.p0.p0.i64(ptr align 8 %34, ptr align 8 %4, i64 40, i1 false)
  %35 = load ptr, ptr %3, align 8
  %36 = getelementptr inbounds %struct.FT_GlyphSlotRec_, ptr %35, i32 0, i32 21
  %37 = load ptr, ptr %36, align 8
  %38 = getelementptr inbounds %struct.FT_Slot_InternalRec_, ptr %37, i32 0, i32 1
  %39 = load i32, ptr %38, align 8
  %40 = or i32 %39, 1
  store i32 %40, ptr %38, align 8
  br label %41

41:                                               ; preds = %32, %13, %8, %1
  store i32 0, ptr %2, align 4
  br label %42

42:                                               ; preds = %41, %30
  %43 = load i32, ptr %2, align 4
  ret i32 %43
}