; Function Attrs: nounwind uwtable
define i32 @FT_GlyphSlot_Own_Bitmap(ptr noundef %0) local_unnamed_addr #2 {
  %2 = alloca %struct.FT_Bitmap_, align 8
  %.not = icmp eq ptr %0, null
  br i1 %.not, label %22, label %3

3:                                                ; preds = %1
  %4 = getelementptr inbounds i8, ptr %0, i64 144
  %5 = load i32, ptr %4, align 8
  %6 = icmp eq i32 %5, 1651078259
  br i1 %6, label %7, label %22

7:                                                ; preds = %3
  %8 = getelementptr inbounds i8, ptr %0, i64 296
  %9 = load ptr, ptr %8, align 8
  %10 = getelementptr inbounds i8, ptr %9, i64 8
  %11 = load i32, ptr %10, align 8
  %12 = and i32 %11, 1
  %.not11 = icmp eq i32 %12, 0
  br i1 %.not11, label %13, label %22

13:                                               ; preds = %7
  call void @llvm.memset.p0.i64(ptr noundef nonnull align 8 dereferenceable(40) %2, i8 0, i64 40, i1 false)
  %14 = load ptr, ptr %0, align 8
  %15 = getelementptr inbounds i8, ptr %0, i64 152
  %16 = call i32 @FT_Bitmap_Copy(ptr noundef %14, ptr noundef nonnull %15, ptr noundef nonnull %2)
  %.not12 = icmp eq i32 %16, 0
  br i1 %.not12, label %17, label %22

17:                                               ; preds = %13
  call void @llvm.memcpy.p0.p0.i64(ptr noundef nonnull align 8 dereferenceable(40) %15, ptr noundef nonnull align 8 dereferenceable(40) %2, i64 40, i1 false)
  %18 = load ptr, ptr %8, align 8
  %19 = getelementptr inbounds i8, ptr %18, i64 8
  %20 = load i32, ptr %19, align 8
  %21 = or i32 %20, 1
  store i32 %21, ptr %19, align 8
  br label %22

22:                                               ; preds = %1, %3, %7, %17, %13
  %.0 = phi i32 [ %16, %13 ], [ 0, %17 ], [ 0, %7 ], [ 0, %3 ], [ 0, %1 ]
  ret i32 %.0
}